; Function Attrs: mustprogress uwtable
define hidden void @_ZN6google8protobuf8internal14WireFormatLite9WriteEnumEiiPNS0_2io17CodedOutputStreamE(i32 noundef %0, i32 noundef %1, ptr noundef %2) local_unnamed_addr #3 align 2 {
  %4 = shl i32 %0, 3
  %5 = getelementptr inbounds nuw i8, ptr %2, i64 64
  %6 = load ptr, ptr %5, align 8, !tbaa !20
  %7 = load ptr, ptr %2, align 8, !tbaa !25
  %.not.i.i.i = icmp ult ptr %6, %7
  br i1 %.not.i.i.i, label %_ZN6google8protobuf2io19EpsCopyOutputStream11EnsureSpaceEPh.exit.i.i, label %8, !prof !15

8:                                                ; preds = %3
  %9 = tail call noundef ptr @_ZN6google8protobuf2io19EpsCopyOutputStream19EnsureSpaceFallbackEPh(ptr noundef nonnull align 8 dereferenceable(80) %2, ptr noundef %6)
  br label %_ZN6google8protobuf2io19EpsCopyOutputStream11EnsureSpaceEPh.exit.i.i

_ZN6google8protobuf2io19EpsCopyOutputStream11EnsureSpaceEPh.exit.i.i: ; preds = %8, %3
  %.0.i.i.i = phi ptr [ %9, %8 ], [ %6, %3 ]
  store ptr %.0.i.i.i, ptr %5, align 8, !tbaa !20
  %10 = trunc i32 %4 to i8
  store i8 %10, ptr %.0.i.i.i, align 1, !tbaa !16
  %11 = icmp ult i32 %4, 128
  br i1 %11, label %12, label %14

12:                                               ; preds = %_ZN6google8protobuf2io19EpsCopyOutputStream11EnsureSpaceEPh.exit.i.i
  %13 = getelementptr inbounds nuw i8, ptr %.0.i.i.i, i64 1
  br label %_ZN6google8protobuf2io17CodedOutputStream8WriteTagEj.exit

14:                                               ; preds = %_ZN6google8protobuf2io19EpsCopyOutputStream11EnsureSpaceEPh.exit.i.i
  %15 = or i8 %10, -128
  store i8 %15, ptr %.0.i.i.i, align 1, !tbaa !16
  %16 = lshr i32 %4, 7
  %17 = trunc i32 %16 to i8
  %18 = getelementptr inbounds nuw i8, ptr %.0.i.i.i, i64 1
  store i8 %17, ptr %18, align 1, !tbaa !16
  %19 = icmp ult i32 %4, 16384
  %20 = getelementptr inbounds nuw i8, ptr %.0.i.i.i, i64 2
  br i1 %19, label %_ZN6google8protobuf2io17CodedOutputStream8WriteTagEj.exit, label %.preheader.i.i.preheader

.preheader.i.i.preheader:                         ; preds = %14
  %scevgep14 = getelementptr i8, ptr %.0.i.i.i, i64 1
  %load_initial15 = load i8, ptr %scevgep14, align 1
  br label %.preheader.i.i

.preheader.i.i:                                   ; preds = %.preheader.i.i.preheader, %.preheader.i.i
  %store_forwarded16 = phi i8 [ %load_initial15, %.preheader.i.i.preheader ], [ %24, %.preheader.i.i ]
  %.018.i.i.i.i = phi i32 [ %16, %.preheader.i.i.preheader ], [ %23, %.preheader.i.i ]
  %.0.i.i.i.i = phi ptr [ %20, %.preheader.i.i.preheader ], [ %25, %.preheader.i.i ]
  %21 = getelementptr inbounds i8, ptr %.0.i.i.i.i, i64 -1
  %22 = or i8 %store_forwarded16, -128
  store i8 %22, ptr %21, align 1, !tbaa !16
  %23 = lshr i32 %.018.i.i.i.i, 7
  %24 = trunc i32 %23 to i8
  store i8 %24, ptr %.0.i.i.i.i, align 1, !tbaa !16
  %25 = getelementptr inbounds nuw i8, ptr %.0.i.i.i.i, i64 1
  %26 = icmp samesign ugt i32 %.018.i.i.i.i, 16383
  br i1 %26, label %.preheader.i.i, label %_ZN6google8protobuf2io17CodedOutputStream8WriteTagEj.exit, !llvm.loop !26

_ZN6google8protobuf2io17CodedOutputStream8WriteTagEj.exit: ; preds = %.preheader.i.i, %12, %14
  %.019.i.i.i.i = phi ptr [ %13, %12 ], [ %20, %14 ], [ %25, %.preheader.i.i ]
  store ptr %.019.i.i.i.i, ptr %5, align 8, !tbaa !20
  %27 = sext i32 %1 to i64
  %28 = load ptr, ptr %2, align 8, !tbaa !25
  %.not.i.i.i3 = icmp ult ptr %.019.i.i.i.i, %28
  br i1 %.not.i.i.i3, label %_ZN6google8protobuf2io19EpsCopyOutputStream11EnsureSpaceEPh.exit.i.i4, label %29, !prof !15

29:                                               ; preds = %_ZN6google8protobuf2io17CodedOutputStream8WriteTagEj.exit
  %30 = tail call noundef ptr @_ZN6google8protobuf2io19EpsCopyOutputStream19EnsureSpaceFallbackEPh(ptr noundef nonnull align 8 dereferenceable(80) %2, ptr noundef nonnull %.019.i.i.i.i)
  br label %_ZN6google8protobuf2io19EpsCopyOutputStream11EnsureSpaceEPh.exit.i.i4

_ZN6google8protobuf2io19EpsCopyOutputStream11EnsureSpaceEPh.exit.i.i4: ; preds = %29, %_ZN6google8protobuf2io17CodedOutputStream8WriteTagEj.exit
  %.0.i.i.i5 = phi ptr [ %30, %29 ], [ %.019.i.i.i.i, %_ZN6google8protobuf2io17CodedOutputStream8WriteTagEj.exit ]
  store ptr %.0.i.i.i5, ptr %5, align 8, !tbaa !20
  %31 = trunc i32 %1 to i8
  store i8 %31, ptr %.0.i.i.i5, align 1, !tbaa !16
  %32 = icmp ult i32 %1, 128
  br i1 %32, label %33, label %35

33:                                               ; preds = %_ZN6google8protobuf2io19EpsCopyOutputStream11EnsureSpaceEPh.exit.i.i4
  %34 = getelementptr inbounds nuw i8, ptr %.0.i.i.i5, i64 1
  br label %_ZN6google8protobuf2io17CodedOutputStream25WriteVarint32SignExtendedEi.exit

35:                                               ; preds = %_ZN6google8protobuf2io19EpsCopyOutputStream11EnsureSpaceEPh.exit.i.i4
  %36 = or i8 %31, -128
  store i8 %36, ptr %.0.i.i.i5, align 1, !tbaa !16
  %37 = lshr i64 %27, 7
  %38 = trunc i64 %37 to i8
  %39 = getelementptr inbounds nuw i8, ptr %.0.i.i.i5, i64 1
  store i8 %38, ptr %39, align 1, !tbaa !16
  %40 = icmp ult i32 %1, 16384
  %41 = getelementptr inbounds nuw i8, ptr %.0.i.i.i5, i64 2
  br i1 %40, label %_ZN6google8protobuf2io17CodedOutputStream25WriteVarint32SignExtendedEi.exit, label %.preheader.i.i6.preheader

.preheader.i.i6.preheader:                        ; preds = %35
  %scevgep = getelementptr i8, ptr %.0.i.i.i5, i64 1
  %load_initial = load i8, ptr %scevgep, align 1
  br label %.preheader.i.i6

.preheader.i.i6:                                  ; preds = %.preheader.i.i6.preheader, %.preheader.i.i6
  %store_forwarded = phi i8 [ %load_initial, %.preheader.i.i6.preheader ], [ %45, %.preheader.i.i6 ]
  %.018.i.i.i.i7 = phi i64 [ %37, %.preheader.i.i6.preheader ], [ %44, %.preheader.i.i6 ]
  %.0.i.i.i.i8 = phi ptr [ %41, %.preheader.i.i6.preheader ], [ %46, %.preheader.i.i6 ]
  %42 = getelementptr inbounds i8, ptr %.0.i.i.i.i8, i64 -1
  %43 = or i8 %store_forwarded, -128
  store i8 %43, ptr %42, align 1, !tbaa !16
  %44 = lshr i64 %.018.i.i.i.i7, 7
  %45 = trunc i64 %44 to i8
  store i8 %45, ptr %.0.i.i.i.i8, align 1, !tbaa !16
  %46 = getelementptr inbounds nuw i8, ptr %.0.i.i.i.i8, i64 1
  %47 = icmp samesign ugt i64 %.018.i.i.i.i7, 16383
  br i1 %47, label %.preheader.i.i6, label %_ZN6google8protobuf2io17CodedOutputStream25WriteVarint32SignExtendedEi.exit, !llvm.loop !28

_ZN6google8protobuf2io17CodedOutputStream25WriteVarint32SignExtendedEi.exit: ; preds = %.preheader.i.i6, %33, %35
  %.019.i.i.i.i9 = phi ptr [ %34, %33 ], [ %41, %35 ], [ %46, %.preheader.i.i6 ]
  store ptr %.019.i.i.i.i9, ptr %5, align 8, !tbaa !20
  ret void
}